target datalayout = "e-m:e-p270:32:32-p271:32:32-p272:64:64-i64:64-i128:128-f80:128-n8:16:32:64-S128"
target triple = "x86_64-pc-linux-gnu"

%"class.Assimp::LimitBoneWeightsProcess" = type <{ %"class.Assimp::BaseProcess", i32, i8, [3 x i8] }>
%"class.Assimp::BaseProcess" = type { ptr, ptr, ptr }

; Function Attrs: mustprogress nounwind uwtable
define void @_ZN6Assimp23LimitBoneWeightsProcessC2Ev(ptr noundef nonnull align 8 dereferenceable(29) %0) unnamed_addr #0 align 2 {
  %2 = alloca ptr, align 8
  store ptr %0, ptr %2, align 8
  %3 = load ptr, ptr %2, align 8
  call void @_ZN6Assimp11BaseProcessC2Ev(ptr noundef nonnull align 8 dereferenceable(24) %3) #15
  store ptr getelementptr inbounds inrange(-16, 48) ({ [8 x ptr] }, ptr @_ZTVN6Assimp23LimitBoneWeightsProcessE, i32 0, i32 0, i32 2), ptr %3, align 8
  %4 = getelementptr inbounds nuw %"class.Assimp::LimitBoneWeightsProcess", ptr %3, i32 0, i32 1
  store i32 4, ptr %4, align 8
  %5 = getelementptr inbounds nuw %"class.Assimp::LimitBoneWeightsProcess", ptr %3, i32 0, i32 2
  store i8 1, ptr %5, align 4
  ret void
}