; Function Attrs: mustprogress nounwind uwtable
define void @_ZN6Assimp23LimitBoneWeightsProcessC2Ev(ptr noundef nonnull align 8 dereferenceable(29) %0) unnamed_addr #0 align 2 {
  tail call void @_ZN6Assimp11BaseProcessC2Ev(ptr noundef nonnull align 8 dereferenceable(24) %0) #16
  store ptr getelementptr inbounds nuw inrange(-16, 48) (i8, ptr @_ZTVN6Assimp23LimitBoneWeightsProcessE, i64 16), ptr %0, align 8
  %2 = getelementptr inbounds nuw i8, ptr %0, i64 24
  store i32 4, ptr %2, align 8
  %3 = getelementptr inbounds nuw i8, ptr %0, i64 28
  store i8 1, ptr %3, align 4
  ret void
}